; Function Attrs: nounwind uwtable
define internal zeroext i1 @peek_fill_cb(ptr noundef %0, i32 %1, i32 %2, ptr nocapture noundef readonly %3) #0 {
  %5 = getelementptr inbounds nuw i8, ptr %3, i64 48
  %6 = load ptr, ptr %5, align 8, !tbaa !11
  %7 = load ptr, ptr %3, align 8, !tbaa !3
  %8 = getelementptr inbounds nuw i8, ptr %3, i64 16
  %9 = load ptr, ptr %8, align 8, !tbaa !12
  %10 = tail call i32 %6(ptr noundef %7, ptr noundef %9, ptr noundef %0) #4
  %11 = icmp ne i32 %10, 0
  ret i1 %11
}